; Function Attrs: nounwind uwtable
define ptr @l_Lean_Compiler_LCNF_CollectLevelParams_visitArgs(ptr noundef readonly captures(none) %0, ptr noundef %1) local_unnamed_addr #1 {
lean_nat_lt.exit:
  %2 = getelementptr i8, ptr %0, i64 8
  %.val = load i64, ptr %2, align 8, !tbaa !12
  %.mask = and i64 %.val, 9223372036854775807
  %.not = icmp eq i64 %.mask, 0
  br i1 %.not, label %lean_dec.exit19, label %.lr.ph.i

.lr.ph.i:                                         ; preds = %lean_nat_lt.exit
  %3 = getelementptr inbounds nuw i8, ptr %0, i64 24
  br label %4

4:                                                ; preds = %15, %.lr.ph.i
  %.01427.i = phi i64 [ 0, %.lr.ph.i ], [ %17, %15 ]
  %.01626.i = phi ptr [ %1, %.lr.ph.i ], [ %16, %15 ]
  %5 = getelementptr inbounds nuw [0 x ptr], ptr %3, i64 0, i64 %.01427.i
  %6 = load ptr, ptr %5, align 8, !tbaa !4
  %7 = ptrtoint ptr %6 to i64
  %8 = and i64 %7, 1
  %.not.i.i = icmp eq i64 %8, 0
  br i1 %.not.i.i, label %9, label %15

9:                                                ; preds = %4
  %.val.i.i.i = load i32, ptr %6, align 4, !tbaa !8
  %10 = icmp sgt i32 %.val.i.i.i, 0
  br i1 %10, label %11, label %13, !prof !11

11:                                               ; preds = %9
  %12 = add nuw i32 %.val.i.i.i, 1
  store i32 %12, ptr %6, align 4, !tbaa !8
  br label %15

13:                                               ; preds = %9
  %.not.i.i.i = icmp eq i32 %.val.i.i.i, 0
  br i1 %.not.i.i.i, label %15, label %14

14:                                               ; preds = %13
  tail call void @lean_inc_ref_cold(ptr noundef nonnull %6) #4
  br label %15

15:                                               ; preds = %14, %13, %11, %4
  %16 = tail call ptr @l_Lean_Compiler_LCNF_CollectLevelParams_visitArg(ptr noundef %6, ptr noundef %.01626.i)
  %17 = add nuw nsw i64 %.01427.i, 1
  %.not.i27 = icmp eq i64 %17, %.mask
  br i1 %.not.i27, label %lean_dec.exit19, label %4

lean_dec.exit19:                                  ; preds = %15, %lean_nat_lt.exit
  %.0 = phi ptr [ %1, %lean_nat_lt.exit ], [ %16, %15 ]
  ret ptr %.0
}